target datalayout = "e-m:e-p270:32:32-p271:32:32-p272:64:64-i64:64-i128:128-f80:128-n8:16:32:64-S128"
target triple = "x86_64-pc-linux-gnu"

; Function Attrs: nounwind uwtable
define internal i32 @Mult(i8 noundef zeroext %0, i32 noundef %1) #0 {
  %3 = alloca i8, align 1
  %4 = alloca i32, align 4
  %5 = alloca i32, align 4
  store i8 %0, ptr %3, align 1, !tbaa !12
  store i32 %1, ptr %4, align 4, !tbaa !8
  call void @llvm.lifetime.start.p0(i64 4, ptr %5) #5
  %6 = load i8, ptr %3, align 1, !tbaa !12
  %7 = zext i8 %6 to i32
  %8 = load i32, ptr %4, align 4, !tbaa !8
  %9 = mul i32 %7, %8
  %10 = add i32 %9, 8388608
  %11 = lshr i32 %10, 24
  store i32 %11, ptr %5, align 4, !tbaa !8
  %12 = load i32, ptr %5, align 4, !tbaa !8
  call void @llvm.lifetime.end.p0(i64 4, ptr %5) #5
  ret i32 %12
}

; Function Attrs: inlinehint nounwind uwtable
define internal i32 @GetScale(i32 noundef %0, i32 noundef %1) #2 {
  %3 = alloca i32, align 4
  %4 = alloca i32, align 4
  store i32 %0, ptr %3, align 4, !tbaa !8
  store i32 %1, ptr %4, align 4, !tbaa !8
  %5 = load i32, ptr %4, align 4, !tbaa !8
  %6 = icmp ne i32 %5, 0
  br i1 %6, label %7, label %10

7:                                                ; preds = %2
  %8 = load i32, ptr %3, align 4, !tbaa !8
  %9 = udiv i32 -16777216, %8
  br label %13

10:                                               ; preds = %2
  %11 = load i32, ptr %3, align 4, !tbaa !8
  %12 = mul i32 %11, 65793
  br label %13

13:                                               ; preds = %10, %7
  %14 = phi i32 [ %9, %7 ], [ %12, %10 ]
  ret i32 %14
}

; Function Attrs: nounwind uwtable
define hidden void @WebPMultARGBRow_C(ptr noundef %0, i32 noundef %1, i32 noundef %2) #0 {
  %4 = alloca ptr, align 8
  %5 = alloca i32, align 4
  %6 = alloca i32, align 4
  %7 = alloca i32, align 4
  %8 = alloca i32, align 4
  %9 = alloca i32, align 4
  %10 = alloca i32, align 4
  %11 = alloca i32, align 4
  store ptr %0, ptr %4, align 8, !tbaa !3
  store i32 %1, ptr %5, align 4, !tbaa !8
  store i32 %2, ptr %6, align 4, !tbaa !8
  call void @llvm.lifetime.start.p0(i64 4, ptr %7) #5
  store i32 0, ptr %7, align 4, !tbaa !8
  br label %12

12:                                               ; preds = %72, %3
  %13 = load i32, ptr %7, align 4, !tbaa !8
  %14 = load i32, ptr %5, align 4, !tbaa !8
  %15 = icmp slt i32 %13, %14
  br i1 %15, label %16, label %75

16:                                               ; preds = %12
  call void @llvm.lifetime.start.p0(i64 4, ptr %8) #5
  %17 = load ptr, ptr %4, align 8, !tbaa !3
  %18 = load i32, ptr %7, align 4, !tbaa !8
  %19 = sext i32 %18 to i64
  %20 = getelementptr inbounds i32, ptr %17, i64 %19
  %21 = load i32, ptr %20, align 4, !tbaa !8
  store i32 %21, ptr %8, align 4, !tbaa !8
  %22 = load i32, ptr %8, align 4, !tbaa !8
  %23 = icmp ult i32 %22, -16777216
  br i1 %23, label %24, label %71

24:                                               ; preds = %16
  %25 = load i32, ptr %8, align 4, !tbaa !8
  %26 = icmp ule i32 %25, 16777215
  br i1 %26, label %27, label %32

27:                                               ; preds = %24
  %28 = load ptr, ptr %4, align 8, !tbaa !3
  %29 = load i32, ptr %7, align 4, !tbaa !8
  %30 = sext i32 %29 to i64
  %31 = getelementptr inbounds i32, ptr %28, i64 %30
  store i32 0, ptr %31, align 4, !tbaa !8
  br label %70

32:                                               ; preds = %24
  call void @llvm.lifetime.start.p0(i64 4, ptr %9) #5
  %33 = load i32, ptr %8, align 4, !tbaa !8
  %34 = lshr i32 %33, 24
  %35 = and i32 %34, 255
  store i32 %35, ptr %9, align 4, !tbaa !8
  call void @llvm.lifetime.start.p0(i64 4, ptr %10) #5
  %36 = load i32, ptr %9, align 4, !tbaa !8
  %37 = load i32, ptr %6, align 4, !tbaa !8
  %38 = call i32 @GetScale(i32 noundef %36, i32 noundef %37)
  store i32 %38, ptr %10, align 4, !tbaa !8
  call void @llvm.lifetime.start.p0(i64 4, ptr %11) #5
  %39 = load i32, ptr %8, align 4, !tbaa !8
  %40 = and i32 %39, -16777216
  store i32 %40, ptr %11, align 4, !tbaa !8
  %41 = load i32, ptr %8, align 4, !tbaa !8
  %42 = lshr i32 %41, 0
  %43 = trunc i32 %42 to i8
  %44 = load i32, ptr %10, align 4, !tbaa !8
  %45 = call i32 @Mult(i8 noundef zeroext %43, i32 noundef %44)
  %46 = shl i32 %45, 0
  %47 = load i32, ptr %11, align 4, !tbaa !8
  %48 = or i32 %47, %46
  store i32 %48, ptr %11, align 4, !tbaa !8
  %49 = load i32, ptr %8, align 4, !tbaa !8
  %50 = lshr i32 %49, 8
  %51 = trunc i32 %50 to i8
  %52 = load i32, ptr %10, align 4, !tbaa !8
  %53 = call i32 @Mult(i8 noundef zeroext %51, i32 noundef %52)
  %54 = shl i32 %53, 8
  %55 = load i32, ptr %11, align 4, !tbaa !8
  %56 = or i32 %55, %54
  store i32 %56, ptr %11, align 4, !tbaa !8
  %57 = load i32, ptr %8, align 4, !tbaa !8
  %58 = lshr i32 %57, 16
  %59 = trunc i32 %58 to i8
  %60 = load i32, ptr %10, align 4, !tbaa !8
  %61 = call i32 @Mult(i8 noundef zeroext %59, i32 noundef %60)
  %62 = shl i32 %61, 16
  %63 = load i32, ptr %11, align 4, !tbaa !8
  %64 = or i32 %63, %62
  store i32 %64, ptr %11, align 4, !tbaa !8
  %65 = load i32, ptr %11, align 4, !tbaa !8
  %66 = load ptr, ptr %4, align 8, !tbaa !3
  %67 = load i32, ptr %7, align 4, !tbaa !8
  %68 = sext i32 %67 to i64
  %69 = getelementptr inbounds i32, ptr %66, i64 %68
  store i32 %65, ptr %69, align 4, !tbaa !8
  call void @llvm.lifetime.end.p0(i64 4, ptr %11) #5
  call void @llvm.lifetime.end.p0(i64 4, ptr %10) #5
  call void @llvm.lifetime.end.p0(i64 4, ptr %9) #5
  br label %70

70:                                               ; preds = %32, %27
  br label %71

71:                                               ; preds = %70, %16
  call void @llvm.lifetime.end.p0(i64 4, ptr %8) #5
  br label %72

72:                                               ; preds = %71
  %73 = load i32, ptr %7, align 4, !tbaa !8
  %74 = add nsw i32 %73, 1
  store i32 %74, ptr %7, align 4, !tbaa !8
  br label %12, !llvm.loop !10

75:                                               ; preds = %12
  call void @llvm.lifetime.end.p0(i64 4, ptr %7) #5
  ret void
}