; Function Attrs: nofree norecurse nosync nounwind memory(argmem: readwrite) uwtable
define hidden void @WebPMultARGBRow_C(ptr noundef captures(none) %0, i32 noundef %1, i32 noundef %2) #0 {
  %4 = icmp sgt i32 %1, 0
  br i1 %4, label %.lr.ph, label %._crit_edge

.lr.ph:                                           ; preds = %3
  %.not.i = icmp eq i32 %2, 0
  %wide.trip.count31 = zext nneg i32 %1 to i64
  br i1 %.not.i, label %.lr.ph.split.us, label %.lr.ph.split

.lr.ph.split.us:                                  ; preds = %.lr.ph, %32
  %indvars.iv28 = phi i64 [ %indvars.iv.next29, %32 ], [ 0, %.lr.ph ]
  %5 = getelementptr inbounds nuw i32, ptr %0, i64 %indvars.iv28
  %6 = load i32, ptr %5, align 4, !tbaa !3
  %7 = icmp ult i32 %6, -16777216
  br i1 %7, label %8, label %32

8:                                                ; preds = %.lr.ph.split.us
  %9 = icmp ult i32 %6, 16777216
  br i1 %9, label %.sink.split, label %GetScale.exit.us

GetScale.exit.us:                                 ; preds = %8
  %10 = lshr i32 %6, 24
  %11 = mul nuw nsw i32 %10, 65793
  %12 = and i32 %6, -16777216
  %13 = and i32 %6, 255
  %14 = mul nuw i32 %11, %13
  %15 = add nuw i32 %14, 8388608
  %16 = lshr i32 %15, 24
  %17 = or disjoint i32 %16, %12
  %18 = lshr i32 %6, 8
  %19 = and i32 %18, 255
  %20 = mul nuw i32 %11, %19
  %21 = add nuw i32 %20, 8388608
  %22 = lshr i32 %21, 16
  %23 = and i32 %22, 65280
  %24 = or disjoint i32 %17, %23
  %25 = lshr i32 %6, 16
  %26 = and i32 %25, 255
  %27 = mul nuw i32 %11, %26
  %28 = add nuw i32 %27, 8388608
  %29 = lshr i32 %28, 8
  %30 = and i32 %29, 16711680
  %31 = or disjoint i32 %24, %30
  br label %.sink.split

.sink.split:                                      ; preds = %8, %GetScale.exit.us
  %.sink = phi i32 [ %31, %GetScale.exit.us ], [ 0, %8 ]
  store i32 %.sink, ptr %5, align 4, !tbaa !3
  br label %32

32:                                               ; preds = %.sink.split, %.lr.ph.split.us
  %indvars.iv.next29 = add nuw nsw i64 %indvars.iv28, 1
  %exitcond32.not = icmp eq i64 %indvars.iv.next29, %wide.trip.count31
  br i1 %exitcond32.not, label %._crit_edge, label %.lr.ph.split.us, !llvm.loop !7

.lr.ph.split:                                     ; preds = %.lr.ph, %60
  %indvars.iv = phi i64 [ %indvars.iv.next, %60 ], [ 0, %.lr.ph ]
  %33 = getelementptr inbounds nuw i32, ptr %0, i64 %indvars.iv
  %34 = load i32, ptr %33, align 4, !tbaa !3
  %35 = icmp ult i32 %34, -16777216
  br i1 %35, label %36, label %60

36:                                               ; preds = %.lr.ph.split
  %37 = icmp ult i32 %34, 16777216
  br i1 %37, label %.sink.split34, label %GetScale.exit

GetScale.exit:                                    ; preds = %36
  %38 = lshr i32 %34, 24
  %39 = udiv i32 -16777216, %38
  %40 = and i32 %34, -16777216
  %41 = and i32 %34, 255
  %42 = mul i32 %39, %41
  %43 = add i32 %42, 8388608
  %44 = lshr i32 %43, 24
  %45 = or disjoint i32 %44, %40
  %46 = lshr i32 %34, 8
  %47 = and i32 %46, 255
  %48 = mul i32 %39, %47
  %49 = add i32 %48, 8388608
  %50 = lshr i32 %49, 16
  %51 = and i32 %50, 65280
  %52 = or disjoint i32 %45, %51
  %53 = lshr i32 %34, 16
  %54 = and i32 %53, 255
  %55 = mul i32 %39, %54
  %56 = add i32 %55, 8388608
  %57 = lshr i32 %56, 8
  %58 = and i32 %57, 16711680
  %59 = or disjoint i32 %52, %58
  br label %.sink.split34

.sink.split34:                                    ; preds = %36, %GetScale.exit
  %.sink35 = phi i32 [ %59, %GetScale.exit ], [ 0, %36 ]
  store i32 %.sink35, ptr %33, align 4, !tbaa !3
  br label %60

60:                                               ; preds = %.sink.split34, %.lr.ph.split
  %indvars.iv.next = add nuw nsw i64 %indvars.iv, 1
  %exitcond.not = icmp eq i64 %indvars.iv.next, %wide.trip.count31
  br i1 %exitcond.not, label %._crit_edge, label %.lr.ph.split, !llvm.loop !7

._crit_edge:                                      ; preds = %60, %32, %3
  ret void
}